target datalayout = "e-m:e-p270:32:32-p271:32:32-p272:64:64-i64:64-i128:128-f80:128-n8:16:32:64-S128"
target triple = "x86_64-pc-linux-gnu"

@glad_glIsShader = external global ptr, align 8
@glad_glGetShaderiv = external global ptr, align 8
@glad_glIsProgram = external global ptr, align 8
@glad_glGetProgramiv = external global ptr, align 8
@.str.7 = private unnamed_addr constant [39 x i8] c"PrintLogGL: Not a shader or a program\0A\00", align 1
@glad_glGetShaderInfoLog = external global ptr, align 8
@glad_glGetProgramInfoLog = external global ptr, align 8
@.str.8 = private unnamed_addr constant [15 x i8] c"PrintLogGL: %s\00", align 1

; Function Attrs: mustprogress uwtable
define dso_local void @_Z10PrintLogGLj(i32 noundef %0) #0 {
  %2 = alloca i32, align 4
  %3 = alloca i32, align 4
  %4 = alloca i32, align 4
  %5 = alloca ptr, align 8
  store i32 %0, ptr %2, align 4, !tbaa !10
  call void @llvm.lifetime.start.p0(i64 4, ptr %3) #5
  store i32 0, ptr %3, align 4, !tbaa !10
  %6 = load ptr, ptr @glad_glIsShader, align 8, !tbaa !4
  %7 = load i32, ptr %2, align 4, !tbaa !10
  %8 = call zeroext i8 %6(i32 noundef %7)
  %9 = icmp ne i8 %8, 0
  br i1 %9, label %10, label %13

10:                                               ; preds = %1
  %11 = load ptr, ptr @glad_glGetShaderiv, align 8, !tbaa !4
  %12 = load i32, ptr %2, align 4, !tbaa !10
  call void %11(i32 noundef %12, i32 noundef 35716, ptr noundef %3)
  br label %24

13:                                               ; preds = %1
  %14 = load ptr, ptr @glad_glIsProgram, align 8, !tbaa !4
  %15 = load i32, ptr %2, align 4, !tbaa !10
  %16 = call zeroext i8 %14(i32 noundef %15)
  %17 = icmp ne i8 %16, 0
  br i1 %17, label %18, label %21

18:                                               ; preds = %13
  %19 = load ptr, ptr @glad_glGetProgramiv, align 8, !tbaa !4
  %20 = load i32, ptr %2, align 4, !tbaa !10
  call void %19(i32 noundef %20, i32 noundef 35716, ptr noundef %3)
  br label %23

21:                                               ; preds = %13
  %22 = call i32 (ptr, ...) @printf(ptr noundef @.str.7)
  store i32 1, ptr %4, align 4
  br label %52

23:                                               ; preds = %18
  br label %24

24:                                               ; preds = %23, %10
  call void @llvm.lifetime.start.p0(i64 8, ptr %5) #5
  %25 = load i32, ptr %3, align 4, !tbaa !10
  %26 = sext i32 %25 to i64
  %27 = call noalias ptr @malloc(i64 noundef %26) #6
  store ptr %27, ptr %5, align 8, !tbaa !8
  %28 = load ptr, ptr @glad_glIsShader, align 8, !tbaa !4
  %29 = load i32, ptr %2, align 4, !tbaa !10
  %30 = call zeroext i8 %28(i32 noundef %29)
  %31 = icmp ne i8 %30, 0
  br i1 %31, label %32, label %37

32:                                               ; preds = %24
  %33 = load ptr, ptr @glad_glGetShaderInfoLog, align 8, !tbaa !4
  %34 = load i32, ptr %2, align 4, !tbaa !10
  %35 = load i32, ptr %3, align 4, !tbaa !10
  %36 = load ptr, ptr %5, align 8, !tbaa !8
  call void %33(i32 noundef %34, i32 noundef %35, ptr noundef null, ptr noundef %36)
  br label %48

37:                                               ; preds = %24
  %38 = load ptr, ptr @glad_glIsProgram, align 8, !tbaa !4
  %39 = load i32, ptr %2, align 4, !tbaa !10
  %40 = call zeroext i8 %38(i32 noundef %39)
  %41 = icmp ne i8 %40, 0
  br i1 %41, label %42, label %47

42:                                               ; preds = %37
  %43 = load ptr, ptr @glad_glGetProgramInfoLog, align 8, !tbaa !4
  %44 = load i32, ptr %2, align 4, !tbaa !10
  %45 = load i32, ptr %3, align 4, !tbaa !10
  %46 = load ptr, ptr %5, align 8, !tbaa !8
  call void %43(i32 noundef %44, i32 noundef %45, ptr noundef null, ptr noundef %46)
  br label %47

47:                                               ; preds = %42, %37
  br label %48

48:                                               ; preds = %47, %32
  %49 = load ptr, ptr %5, align 8, !tbaa !8
  %50 = call i32 (ptr, ...) @printf(ptr noundef @.str.8, ptr noundef %49)
  %51 = load ptr, ptr %5, align 8, !tbaa !8
  call void @free(ptr noundef %51) #5
  call void @llvm.lifetime.end.p0(i64 8, ptr %5) #5
  store i32 0, ptr %4, align 4
  br label %52

52:                                               ; preds = %48, %21
  call void @llvm.lifetime.end.p0(i64 4, ptr %3) #5
  %53 = load i32, ptr %4, align 4
  switch i32 %53, label %55 [
    i32 0, label %54
    i32 1, label %54
  ]

54:                                               ; preds = %52, %52
  ret void

55:                                               ; preds = %52
  unreachable
}