; Function Attrs: mustprogress uwtable
define dso_local void @_Z10PrintLogGLj(i32 noundef %0) local_unnamed_addr #0 {
  %2 = alloca i32, align 4
  call void @llvm.lifetime.start.p0(i64 4, ptr nonnull %2) #6
  store i32 0, ptr %2, align 4, !tbaa !8
  %3 = load ptr, ptr @glad_glIsShader, align 8, !tbaa !4
  %4 = tail call zeroext i8 %3(i32 noundef %0)
  %.not = icmp eq i8 %4, 0
  br i1 %.not, label %5, label %9

5:                                                ; preds = %1
  %6 = load ptr, ptr @glad_glIsProgram, align 8, !tbaa !4
  %7 = tail call zeroext i8 %6(i32 noundef %0)
  %.not11 = icmp eq i8 %7, 0
  br i1 %.not11, label %8, label %9

8:                                                ; preds = %5
  %puts = tail call i32 @puts(ptr nonnull dereferenceable(1) @str.2)
  br label %23

9:                                                ; preds = %5, %1
  %glad_glGetProgramiv.sink = phi ptr [ @glad_glGetShaderiv, %1 ], [ @glad_glGetProgramiv, %5 ]
  %10 = load ptr, ptr %glad_glGetProgramiv.sink, align 8, !tbaa !4
  call void %10(i32 noundef %0, i32 noundef 35716, ptr noundef nonnull %2)
  %11 = load i32, ptr %2, align 4, !tbaa !8
  %12 = sext i32 %11 to i64
  %13 = call noalias ptr @malloc(i64 noundef %12) #7
  %14 = load ptr, ptr @glad_glIsShader, align 8, !tbaa !4
  %15 = call zeroext i8 %14(i32 noundef %0)
  %.not12 = icmp eq i8 %15, 0
  br i1 %.not12, label %16, label %.sink.split

16:                                               ; preds = %9
  %17 = load ptr, ptr @glad_glIsProgram, align 8, !tbaa !4
  %18 = call zeroext i8 %17(i32 noundef %0)
  %.not13 = icmp eq i8 %18, 0
  br i1 %.not13, label %21, label %.sink.split

.sink.split:                                      ; preds = %16, %9
  %glad_glGetProgramInfoLog.sink = phi ptr [ @glad_glGetShaderInfoLog, %9 ], [ @glad_glGetProgramInfoLog, %16 ]
  %19 = load ptr, ptr %glad_glGetProgramInfoLog.sink, align 8, !tbaa !4
  %20 = load i32, ptr %2, align 4, !tbaa !8
  call void %19(i32 noundef %0, i32 noundef %20, ptr noundef null, ptr noundef %13)
  br label %21

21:                                               ; preds = %.sink.split, %16
  %22 = call i32 (ptr, ...) @printf(ptr noundef nonnull dereferenceable(1) @.str.8, ptr noundef %13)
  call void @free(ptr noundef %13) #6
  br label %23

23:                                               ; preds = %21, %8
  call void @llvm.lifetime.end.p0(i64 4, ptr nonnull %2) #6
  ret void
}